; Function Attrs: null_pointer_is_valid sspstrong uwtable
define internal void @addr_uat_eui64_tostr_cb(ptr noundef readonly captures(none) %0, ptr noundef writeonly captures(none) initializes((0, 8)) %1, ptr noundef writeonly captures(none) initializes((0, 4)) %2, ptr readnone captures(none) %3, ptr readnone captures(none) %4) #0 {
  %6 = load ptr, ptr %0, align 8
  %.not = icmp eq ptr %6, null
  br i1 %.not, label %12, label %7

7:                                                ; preds = %5
  %8 = getelementptr inbounds nuw i8, ptr %0, i64 8
  %9 = load i32, ptr %8, align 8
  %10 = zext i32 %9 to i64
  %11 = tail call ptr @g_memdup2(ptr noundef nonnull %6, i64 noundef %10) #20
  br label %14

12:                                               ; preds = %5
  %13 = tail call noalias ptr @g_strdup(ptr noundef nonnull @.str.1136)
  br label %14

14:                                               ; preds = %12, %7
  %15 = phi ptr [ %11, %7 ], [ %13, %12 ]
  store ptr %15, ptr %1, align 8
  %16 = getelementptr inbounds nuw i8, ptr %0, i64 8
  %17 = load i32, ptr %16, align 8
  store i32 %17, ptr %2, align 4
  ret void
}